(dp1
S'files'
p2
(dp3
S'nltk_metrics_windowdiff'
p4
(dp5
S'index'
p6
(dp7
S'par'
p8
I0
sS'html_filename'
p9
S'nltk_metrics_windowdiff.html'
p10
sS'name'
p11
S'nltk.metrics.windowdiff'
p12
sS'nums'
p13
ccopy_reg
_reconstructor
p14
(ccoverage.results
Numbers
p15
c__builtin__
object
p16
NtRp17
(dp18
S'n_files'
p19
I1
sS'n_branches'
p20
I0
sS'n_statements'
p21
I18
sS'n_excluded'
p22
I0
sS'n_missing'
p23
I10
sS'n_missing_branches'
p24
I0
sbssS'hash'
p25
S'\xfe\x89N\xfb6\xf3"\x04\xdf\xd0P\xa7\x89\xd2\xede'
p26
ssS'nltk_parse_api'
p27
(dp28
g6
(dp29
g8
I0
sg9
S'nltk_parse_api.html'
p30
sg11
S'nltk.parse.api'
p31
sg13
g14
(g15
g16
NtRp32
(dp33
g19
I1
sg20
I0
sg21
I41
sg22
I0
sg23
I20
sg24
I0
sbssg25
S'\xc8\x87\xe5\x94\x1e\x81H9B\xfa\x90-\xce\x15\xb0\xb0'
p34
ssS'nltk_classify_megam'
p35
(dp36
g6
(dp37
g8
I0
sg9
S'nltk_classify_megam.html'
p38
sg11
S'nltk.classify.megam'
p39
sg13
g14
(g15
g16
NtRp40
(dp41
g19
I1
sg20
I0
sg21
I61
sg22
I0
sg23
I27
sg24
I0
sbssg25
S'\xb9\xb9\xc1\x0e\xdc\xb0\x0cE\xe4\xa27E0B\x07\x97'
p42
ssS'nltk_parse_dependencygraph'
p43
(dp44
g6
(dp45
g8
I0
sg9
S'nltk_parse_dependencygraph.html'
p46
sg11
S'nltk.parse.dependencygraph'
p47
sg13
g14
(g15
g16
NtRp48
(dp49
g19
I1
sg20
I0
sg21
I226
sg22
I0
sg23
I138
sg24
I0
sbssg25
S'\xc7\x18\x96\xbf\x99\xad\xf5\xbe\x91\xec\xdf\xaeRQm\xb1'
p50
ssS'nltk_cluster_gaac'
p51
(dp52
g6
(dp53
g8
I0
sg9
S'nltk_cluster_gaac.html'
p54
sg11
S'nltk.cluster.gaac'
p55
sg13
g14
(g15
g16
NtRp56
(dp57
g19
I1
sg20
I0
sg21
I81
sg22
I0
sg23
I65
sg24
I0
sbssg25
S'$\xee\x90\xe2WMY!\x1b\x98\xf4\xb6\x8e*}u'
p58
ssS'nltk_align'
p59
(dp60
g6
(dp61
g8
I0
sg9
S'nltk_align.html'
p62
sg11
S'nltk.align'
p63
sg13
g14
(g15
g16
NtRp64
(dp65
g19
I1
sg20
I0
sg21
I164
sg22
I0
sg23
I15
sg24
I0
sbssg25
S'z\x05\\v\xd5\xec\xbe\xd6\xd5t\xf3\xac2l\xf6_'
p66
ssS'nltk_tag_brill'
p67
(dp68
g6
(dp69
g8
I0
sg9
S'nltk_tag_brill.html'
p70
sg11
S'nltk.tag.brill'
p71
sg13
g14
(g15
g16
NtRp72
(dp73
g19
I1
sg20
I0
sg21
I494
sg22
I0
sg23
I162
sg24
I0
sbssg25
S'?\x9fv9\x06O!\xf0)\x1a,(v\xc2\xd4\x19'
p74
ssS'nltk_corpus_reader_conll'
p75
(dp76
g6
(dp77
g8
I0
sg9
S'nltk_corpus_reader_conll.html'
p78
sg11
S'nltk.corpus.reader.conll'
p79
sg13
g14
(g15
g16
NtRp80
(dp81
g19
I1
sg20
I0
sg21
I295
sg22
I0
sg23
I230
sg24
I0
sbssg25
S'\x8a\xccW\xe0EmMd\xfd\x95\xca\x12\xfb3\xa4\x9c'
p82
ssS'nltk_tag_util'
p83
(dp84
g6
(dp85
g8
I0
sg9
S'nltk_tag_util.html'
p86
sg11
S'nltk.tag.util'
p87
sg13
g14
(g15
g16
NtRp88
(dp89
g19
I1
sg20
I0
sg21
I16
sg22
I0
sg23
I4
sg24
I0
sbssg25
S'\x98Jv\x85^\xa0>\x10:\xa3\x11\x13\x01\xd5\x88\xc2'
p90
ssS'nltk_classify_weka'
p91
(dp92
g6
(dp93
g8
I0
sg9
S'nltk_classify_weka.html'
p94
sg11
S'nltk.classify.weka'
p95
sg13
g14
(g15
g16
NtRp96
(dp97
g19
I1
sg20
I0
sg21
I172
sg22
I0
sg23
I136
sg24
I0
sbssg25
S'\xbc\x8a\xec\x8dE\xa3\xc8\xddfW\xf2)X\xd2\xfe\x95'
p98
ssS'nltk_corpus_reader_senseval'
p99
(dp100
g6
(dp101
g8
I0
sg9
S'nltk_corpus_reader_senseval.html'
p102
sg11
S'nltk.corpus.reader.senseval'
p103
sg13
g14
(g15
g16
NtRp104
(dp105
g19
I1
sg20
I0
sg21
I117
sg22
I0
sg23
I97
sg24
I0
sbssg25
S'\x0e\x1b\xfbe\x04\x89$\x18\xee\x0e[\x964\x952\x19'
p106
ssS'nltk_classify_api'
p107
(dp108
g6
(dp109
g8
I0
sg9
S'nltk_classify_api.html'
p110
sg11
S'nltk.classify.api'
p111
sg13
g14
(g15
g16
NtRp112
(dp113
g19
I1
sg20
I0
sg21
I32
sg22
I0
sg23
I14
sg24
I0
sbssg25
S'\x96v\xd1x"*\xa5\xdf\x1e\x1aP\x8b\xc8\xe97.'
p114
ssS'nltk_ccg_lexicon'
p115
(dp116
g6
(dp117
g8
I0
sg9
S'nltk_ccg_lexicon.html'
p118
sg11
S'nltk.ccg.lexicon'
p119
sg13
g14
(g15
g16
NtRp120
(dp121
g19
I1
sg20
I0
sg21
I105
sg22
I0
sg23
I19
sg24
I0
sbssg25
S'\xb41\xc5\xf1:_\xab\x89\xdb!\x84OICm\xc9'
p122
ssS'nltk_sem'
p123
(dp124
g6
(dp125
g8
I0
sg9
S'nltk_sem.html'
p126
sg11
S'nltk.sem'
p127
sg13
g14
(g15
g16
NtRp128
(dp129
g19
I1
sg20
I0
sg21
I10
sg22
I0
sg23
I0
sg24
I0
sbssg25
S'\xb2.Z\x15\xd2O\x0fD\xe2\x9e0/\xb7\x95/\xaf'
p130
ssS'nltk_metrics_spearman'
p131
(dp132
g6
(dp133
g8
I0
sg9
S'nltk_metrics_spearman.html'
p134
sg11
S'nltk.metrics.spearman'
p135
sg13
g14
(g15
g16
NtRp136
(dp137
g19
I1
sg20
I0
sg21
I32
sg22
I0
sg23
I15
sg24
I0
sbssg25
S'\xfd\xb0\x87j\xb4\xe4\xd8\x81}\xdb!F\x9c[\xad\xf7'
p138
ssS'nltk_corpus_reader_dependency'
p139
(dp140
g6
(dp141
g8
I0
sg9
S'nltk_corpus_reader_dependency.html'
p142
sg11
S'nltk.corpus.reader.dependency'
p143
sg13
g14
(g15
g16
NtRp144
(dp145
g19
I1
sg20
I0
sg21
I44
sg22
I0
sg23
I15
sg24
I0
sbssg25
S'\x01\xe5LmT\x1c\xe06\x9a\\\xe3\xf4!HR\x92'
p146
ssS'nltk_corpus_reader_chasen'
p147
(dp148
g6
(dp149
g8
I0
sg9
S'nltk_corpus_reader_chasen.html'
p150
sg11
S'nltk.corpus.reader.chasen'
p151
sg13
g14
(g15
g16
NtRp152
(dp153
g19
I1
sg20
I0
sg21
I73
sg22
I0
sg23
I27
sg24
I0
sbssg25
S'\x8a\xb5\xbd6\xcb\xd9\xfeTMF\xcf1\xb3U\xd7\xb5'
p154
ssS'nltk_corpus_reader_knbc'
p155
(dp156
g6
(dp157
g8
I0
sg9
S'nltk_corpus_reader_knbc.html'
p158
sg11
S'nltk.corpus.reader.knbc'
p159
sg13
g14
(g15
g16
NtRp160
(dp161
g19
I1
sg20
I0
sg21
I79
sg22
I0
sg23
I47
sg24
I0
sbssg25
S'\x9d\xe3\x86.6{[\xb3\x12Jx\xa5\xf5\x9a\tu'
p162
ssS'nltk_tokenize_regexp'
p163
(dp164
g6
(dp165
g8
I0
sg9
S'nltk_tokenize_regexp.html'
p166
sg11
S'nltk.tokenize.regexp'
p167
sg13
g14
(g15
g16
NtRp168
(dp169
g19
I1
sg20
I0
sg21
I51
sg22
I0
sg23
I8
sg24
I0
sbssg25
S'\x10\x92\x9d\xec\xe61B\xfbyA\x07z\x02\xdf1\xb3'
p170
ssS'nltk_corpus_reader'
p171
(dp172
g6
(dp173
g8
I0
sg9
S'nltk_corpus_reader.html'
p174
sg11
S'nltk.corpus.reader'
p175
sg13
g14
(g15
g16
NtRp176
(dp177
g19
I1
sg20
I0
sg21
I38
sg22
I0
sg23
I0
sg24
I0
sbssg25
S'\x05\\\xb4P\xb7\x1c8\xedZ\xb4L/ \xfd\x82\xe8'
p178
ssS'nltk_classify_mallet'
p179
(dp180
g6
(dp181
g8
I0
sg9
S'nltk_classify_mallet.html'
p182
sg11
S'nltk.classify.mallet'
p183
sg13
g14
(g15
g16
NtRp184
(dp185
g19
I1
sg20
I0
sg21
I21
sg22
I0
sg23
I12
sg24
I0
sbssg25
S'\xfb\rP\x02\xc2\x06L\x98\xb6*\xf3)W\x81N\x83'
p186
ssS'nltk_app'
p187
(dp188
g6
(dp189
g8
I0
sg9
S'nltk_app.html'
p190
sg11
S'nltk.app'
p191
sg13
g14
(g15
g16
NtRp192
(dp193
g19
I1
sg20
I0
sg21
I20
sg22
I0
sg23
I1
sg24
I0
sbssg25
S'A Dg\xdd\x8eLR\xe8\x8d50v(\xcd\x82'
p194
ssS'nltk_classify_svm'
p195
(dp196
g6
(dp197
g8
I0
sg9
S'nltk_classify_svm.html'
p198
sg11
S'nltk.classify.svm'
p199
sg13
g14
(g15
g16
NtRp200
(dp201
g19
I1
sg20
I0
sg21
I112
sg22
I0
sg23
I12
sg24
I0
sbssg25
S'\xbb\x17\x1f\xc4\xb9\x9f_:\x05p\x19#KOAH'
p202
ssS'nltk_corpus_reader_switchboard'
p203
(dp204
g6
(dp205
g8
I0
sg9
S'nltk_corpus_reader_switchboard.html'
p206
sg11
S'nltk.corpus.reader.switchboard'
p207
sg13
g14
(g15
g16
NtRp208
(dp209
g19
I1
sg20
I0
sg21
I64
sg22
I0
sg23
I37
sg24
I0
sbssg25
S'x\xd2\x91\xf0\xd2\xa6\x84\xb0\xd4\xd1\xfc8\xdcG\xe2P'
p210
ssS'nltk_featstruct'
p211
(dp212
g6
(dp213
g8
I0
sg9
S'nltk_featstruct.html'
p214
sg11
S'nltk.featstruct'
p215
sg13
g14
(g15
g16
NtRp216
(dp217
g19
I1
sg20
I0
sg21
I1082
sg22
I0
sg23
I205
sg24
I0
sbssg25
S"@'\x96!\x10\xe3\xaa\x1e(0\x86\x165\xaa\x94g"
p218
ssS'nltk_treetransforms'
p219
(dp220
g6
(dp221
g8
I0
sg9
S'nltk_treetransforms.html'
p222
sg11
S'nltk.treetransforms'
p223
sg13
g14
(g15
g16
NtRp224
(dp225
g19
I1
sg20
I0
sg21
I93
sg22
I0
sg23
I21
sg24
I0
sbssg25
S'\x03\x82\xb56\xab\x85\xdb=\x9aR\xd8\x123\x83-\x92'
p226
ssS'nltk_corpus_reader_plaintext'
p227
(dp228
g6
(dp229
g8
I0
sg9
S'nltk_corpus_reader_plaintext.html'
p230
sg11
S'nltk.corpus.reader.plaintext'
p231
sg13
g14
(g15
g16
NtRp232
(dp233
g19
I1
sg20
I0
sg21
I92
sg22
I0
sg23
I33
sg24
I0
sbssg25
S'N\r/p\xb6\x15\xffn\x8e\x1b\xc0\x9eZJ\x11\xa5'
p234
ssS'nltk_tag_hmm'
p235
(dp236
g6
(dp237
g8
I0
sg9
S'nltk_tag_hmm.html'
p238
sg11
S'nltk.tag.hmm'
p239
sg13
g14
(g15
g16
NtRp240
(dp241
g19
I1
sg20
I0
sg21
I592
sg22
I0
sg23
I533
sg24
I0
sbssg25
S'\x06c\x03\x8a#\xda``\xffq\xb3\xca\xfd7\xacP'
p242
ssS'nltk_corpus_reader_ppattach'
p243
(dp244
g6
(dp245
g8
I0
sg9
S'nltk_corpus_reader_ppattach.html'
p246
sg11
S'nltk.corpus.reader.ppattach'
p247
sg13
g14
(g15
g16
NtRp248
(dp249
g19
I1
sg20
I0
sg21
I34
sg22
I0
sg23
I20
sg24
I0
sbssg25
S":\xb9gk\xee\x8f\xc3\xf9j\xab'\xb2\x84/a-"
p250
ssS'nltk_corpus_europarl_raw'
p251
(dp252
g6
(dp253
g8
I0
sg9
S'nltk_corpus_europarl_raw.html'
p254
sg11
S'nltk.corpus.europarl_raw'
p255
sg13
g14
(g15
g16
NtRp256
(dp257
g19
I1
sg20
I0
sg21
I14
sg22
I0
sg23
I0
sg24
I0
sbssg25
S'\xa9\xcc^\x97\x0b\x14r\ty\xddK^\x12l\x91\xb6'
p258
ssS'nltk_corpus_reader_xmldocs'
p259
(dp260
g6
(dp261
g8
I0
sg9
S'nltk_corpus_reader_xmldocs.html'
p262
sg11
S'nltk.corpus.reader.xmldocs'
p263
sg13
g14
(g15
g16
NtRp264
(dp265
g19
I1
sg20
I0
sg21
I155
sg22
I0
sg23
I41
sg24
I0
sbssg25
S'\xd1\x11\xfc"\xa2Y\xa4\xf7.f\x15\x90\x16\xa0Q\x8c'
p266
ssS'nltk_model_api'
p267
(dp268
g6
(dp269
g8
I0
sg9
S'nltk_model_api.html'
p270
sg11
S'nltk.model.api'
p271
sg13
g14
(g15
g16
NtRp272
(dp273
g19
I1
sg20
I0
sg21
I13
sg22
I0
sg23
I6
sg24
I0
sbssg25
S"\xfd\x1b\x9a+_*\xc3'\xc6\x04\xaf\xe1\x93\xd3\xa4\x12"
p274
ssS'nltk_corpus_reader_verbnet'
p275
(dp276
g6
(dp277
g8
I0
sg9
S'nltk_corpus_reader_verbnet.html'
p278
sg11
S'nltk.corpus.reader.verbnet'
p279
sg13
g14
(g15
g16
NtRp280
(dp281
g19
I1
sg20
I0
sg21
I172
sg22
I0
sg23
I118
sg24
I0
sbssg25
S'\xd5\xc3\xc7\x19! \xeb(\xa7\x88ns\x95\x9e\x1bu'
p282
ssS'nltk_corpus_reader_sinica_treebank'
p283
(dp284
g6
(dp285
g8
I0
sg9
S'nltk_corpus_reader_sinica_treebank.html'
p286
sg11
S'nltk.corpus.reader.sinica_treebank'
p287
sg13
g14
(g15
g16
NtRp288
(dp289
g19
I1
sg20
I0
sg21
I25
sg22
I0
sg23
I10
sg24
I0
sbssg25
S'*\t\xe2\x8b\x0e\xfeq\xc5\x1fiV$WI\x10\x04'
p290
ssS'nltk_stem_snowball'
p291
(dp292
g6
(dp293
g8
I0
sg9
S'nltk_stem_snowball.html'
p294
sg11
S'nltk.stem.snowball'
p295
sg13
g14
(g15
g16
NtRp296
(dp297
g19
I1
sg20
I0
sg21
I1672
sg22
I0
sg23
I1329
sg24
I0
sbssg25
S'\xf3\xe2\xe8<\x95x\xd0{\xae*/GJl\xb0p'
p298
ssS'nltk_tokenize_sexpr'
p299
(dp300
g6
(dp301
g8
I0
sg9
S'nltk_tokenize_sexpr.html'
p302
sg11
S'nltk.tokenize.sexpr'
p303
sg13
g14
(g15
g16
NtRp304
(dp305
g19
I1
sg20
I0
sg21
I38
sg22
I0
sg23
I4
sg24
I0
sbssg25
S'\x08\xcd\x12\x8b\xf4JbR,\xc8\x7f\xa4\x85\xf8R\xe3'
p306
ssS'nltk_tokenize'
p307
(dp308
g6
(dp309
g8
I0
sg9
S'nltk_tokenize.html'
p310
sg11
S'nltk.tokenize'
p311
sg13
g14
(g15
g16
NtRp312
(dp313
g19
I1
sg20
I0
sg21
I21
sg22
I0
sg23
I4
sg24
I0
sbssg25
S'\x9b\xaai\x86\x82\xecJ\xe3@\xda\xec\xda\xec \xaf\xd7'
p314
ssS'nltk_parse_projectivedependencyparser'
p315
(dp316
g6
(dp317
g8
I0
sg9
S'nltk_parse_projectivedependencyparser.html'
p318
sg11
S'nltk.parse.projectivedependencyparser'
p319
sg13
g14
(g15
g16
NtRp320
(dp321
g19
I1
sg20
I0
sg21
I294
sg22
I0
sg23
I209
sg24
I0
sbssg25
S'&7|\x12gW\x0e\xb8\x7f\x02\xe3\xf0Lr\x07O'
p322
ssS'nltk_toolbox'
p323
(dp324
g6
(dp325
g8
I0
sg9
S'nltk_toolbox.html'
p326
sg11
S'nltk.toolbox'
p327
sg13
g14
(g15
g16
NtRp328
(dp329
g19
I1
sg20
I0
sg21
I247
sg22
I0
sg23
I154
sg24
I0
sbssg25
S'\x9e\t\xac7\x92\xdc\xda\xe4BxIt\x01u\x91\xa9'
p330
ssS'nltk_classify_positivenaivebayes'
p331
(dp332
g6
(dp333
g8
I0
sg9
S'nltk_classify_positivenaivebayes.html'
p334
sg11
S'nltk.classify.positivenaivebayes'
p335
sg13
g14
(g15
g16
NtRp336
(dp337
g19
I1
sg20
I0
sg21
I52
sg22
I0
sg23
I5
sg24
I0
sbssg25
S'O(5M\x02\xb8\x99t\x84=\xbc\xe5Ya\xc9\xfd'
p338
ssS'nltk_tokenize_punkt'
p339
(dp340
g6
(dp341
g8
I0
sg9
S'nltk_tokenize_punkt.html'
p342
sg11
S'nltk.tokenize.punkt'
p343
sg13
g14
(g15
g16
NtRp344
(dp345
g19
I1
sg20
I0
sg21
I574
sg22
I0
sg23
I315
sg24
I0
sbssg25
S'\x85\x14\x0e\x9a\xee\x1eJu,[A\x8f\x8c\x95\xf8T'
p346
ssS'nltk_collocations'
p347
(dp348
g6
(dp349
g8
I0
sg9
S'nltk_collocations.html'
p350
sg11
S'nltk.collocations'
p351
sg13
g14
(g15
g16
NtRp352
(dp353
g19
I1
sg20
I0
sg21
I133
sg22
I0
sg23
I101
sg24
I0
sbssg25
S'\xfefk\x19\xb6\x9c\xdb\xa2F>\xd7u\x17K\x81\x1d'
p354
ssS'nltk_chat_zen'
p355
(dp356
g6
(dp357
g8
I0
sg9
S'nltk_chat_zen.html'
p358
sg11
S'nltk.chat.zen'
p359
sg13
g14
(g15
g16
NtRp360
(dp361
g19
I1
sg20
I0
sg21
I19
sg22
I0
sg23
I11
sg24
I0
sbssg25
S'\xcf~\xc7\xc6N\x95\xae\x05\xd3?N\x98d\xab\x00\xb0'
p362
ssS'nltk_grammar'
p363
(dp364
g6
(dp365
g8
I0
sg9
S'nltk_grammar.html'
p366
sg11
S'nltk.grammar'
p367
sg13
g14
(g15
g16
NtRp368
(dp369
g19
I1
sg20
I0
sg21
I539
sg22
I0
sg23
I155
sg24
I0
sbssg25
S'g\x13D\xcd\xb7`aLe\nk\x06\xeb[\\\xf4'
p370
ssS'nltk_stem_rslp'
p371
(dp372
g6
(dp373
g8
I0
sg9
S'nltk_stem_rslp.html'
p374
sg11
S'nltk.stem.rslp'
p375
sg13
g14
(g15
g16
NtRp376
(dp377
g19
I1
sg20
I0
sg21
I58
sg22
I0
sg23
I2
sg24
I0
sbssg25
S'\x99\xf3\xaf!v\xbd\xc1\xadr\xe7\x14Z\xef\x1b\x85\x17'
p378
ssS'nltk_chat_util'
p379
(dp380
g6
(dp381
g8
I0
sg9
S'nltk_chat_util.html'
p382
sg11
S'nltk.chat.util'
p383
sg13
g14
(g15
g16
NtRp384
(dp385
g19
I1
sg20
I0
sg21
I42
sg22
I0
sg23
I29
sg24
I0
sbssg25
S'B\x83\r\xaeT\xaf\x07\xd1#@q\xafV\xfd}\xac'
p386
ssS'nltk_tokenize_texttiling'
p387
(dp388
g6
(dp389
g8
I0
sg9
S'nltk_tokenize_texttiling.html'
p390
sg11
S'nltk.tokenize.texttiling'
p391
sg13
g14
(g15
g16
NtRp392
(dp393
g19
I1
sg20
I0
sg21
I227
sg22
I0
sg23
I202
sg24
I0
sbssg25
S'V\xa4\xfe\t\xc6\xbc\xb7\x14^\x98c\xe4J\xa9\xcfc'
p394
ssS'nltk_misc'
p395
(dp396
g6
(dp397
g8
I0
sg9
S'nltk_misc.html'
p398
sg11
S'nltk.misc'
p399
sg13
g14
(g15
g16
NtRp400
(dp401
g19
I1
sg20
I0
sg21
I4
sg22
I0
sg23
I0
sg24
I0
sbssg25
S'0\x89L{\x89\xbc~h\x13\xc6?R\x17\x85_\xd8'
p402
ssS'nltk_misc_minimalset'
p403
(dp404
g6
(dp405
g8
I0
sg9
S'nltk_misc_minimalset.html'
p406
sg11
S'nltk.misc.minimalset'
p407
sg13
g14
(g15
g16
NtRp408
(dp409
g19
I1
sg20
I0
sg21
I29
sg22
I0
sg23
I21
sg24
I0
sbssg25
S'M\x04\xa6\x0b@\xcdB\xa2#\xaf\x93%\xd0\x10\x12\x11'
p410
ssS'nltk_draw'
p411
(dp412
g6
(dp413
g8
I0
sg9
S'nltk_draw.html'
p414
sg11
S'nltk.draw'
p415
sg13
g14
(g15
g16
NtRp416
(dp417
g19
I1
sg20
I0
sg21
I9
sg22
I0
sg23
I0
sg24
I0
sbssg25
S'r\x99\x12\xc9\xcc\xd7Z\xb6\xa2\x1bD\xe3\x06\xd6\x19\xc1'
p418
ssS'nltk_chunk_api'
p419
(dp420
g6
(dp421
g8
I0
sg9
S'nltk_chunk_api.html'
p422
sg11
S'nltk.chunk.api'
p423
sg13
g14
(g15
g16
NtRp424
(dp425
g19
I1
sg20
I0
sg21
I10
sg22
I0
sg23
I4
sg24
I0
sbssg25
S'q\xd8(\xce\xcb\x82\x8e\x93+\xdfR\xe0M\xa9v\x17'
p426
ssS'nltk_examples_pt'
p427
(dp428
g6
(dp429
g8
I0
sg9
S'nltk_examples_pt.html'
p430
sg11
S'nltk.examples.pt'
p431
sg13
g14
(g15
g16
NtRp432
(dp433
g19
I1
sg20
I0
sg21
I32
sg22
I0
sg23
I8
sg24
I0
sbssg25
S'B\xe6:\n\xffb,\xb5g\xaa\x12\x06\x9f\xe2\x9e('
p434
ssS'nltk_parse_viterbi'
p435
(dp436
g6
(dp437
g8
I0
sg9
S'nltk_parse_viterbi.html'
p438
sg11
S'nltk.parse.viterbi'
p439
sg13
g14
(g15
g16
NtRp440
(dp441
g19
I1
sg20
I0
sg21
I135
sg22
I0
sg23
I72
sg24
I0
sbssg25
S'\xc0\x10\xbe\xd1M\x03\x87\x03\x92SL\x04\x1a\xfa\xd6\x0c'
p442
ssS'nltk_corpus_reader_propbank'
p443
(dp444
g6
(dp445
g8
I0
sg9
S'nltk_corpus_reader_propbank.html'
p446
sg11
S'nltk.corpus.reader.propbank'
p447
sg13
g14
(g15
g16
NtRp448
(dp449
g19
I1
sg20
I0
sg21
I194
sg22
I0
sg23
I122
sg24
I0
sbssg25
S'\x1e\x02H\x18\xc6\x10O\xb7\x8e]\rb\xdd\x88a\xac'
p450
ssS'nltk_tag_hunpos'
p451
(dp452
g6
(dp453
g8
I0
sg9
S'nltk_tag_hunpos.html'
p454
sg11
S'nltk.tag.hunpos'
p455
sg13
g14
(g15
g16
NtRp456
(dp457
g19
I1
sg20
I0
sg21
I46
sg22
I0
sg23
I26
sg24
I0
sbssg25
S'\xd0\x8e\xa7G\x8f\xcb\x9c8=e\xa2\xf2&\xac=l'
p458
ssS'nltk_tag_senna'
p459
(dp460
g6
(dp461
g8
I0
sg9
S'nltk_tag_senna.html'
p462
sg11
S'nltk.tag.senna'
p463
sg13
g14
(g15
g16
NtRp464
(dp465
g19
I1
sg20
I0
sg21
I105
sg22
I0
sg23
I61
sg24
I0
sbssg25
S'\xaf\xca?t\xa7&\xb2\x8d.\x87\x86\x82\xbey\x1au'
p466
ssS'nltk_chat_iesha'
p467
(dp468
g6
(dp469
g8
I0
sg9
S'nltk_chat_iesha.html'
p470
sg11
S'nltk.chat.iesha'
p471
sg13
g14
(g15
g16
NtRp472
(dp473
g19
I1
sg20
I0
sg21
I17
sg22
I0
sg23
I8
sg24
I0
sbssg25
S'\xf5\x14\x0b\x8a\x9c\x1f\x04\x81\xb6\xae\x98n\xda`\xf4\xc4'
p474
ssS'nltk_app_wordnet_app'
p475
(dp476
g6
(dp477
g8
I0
sg9
S'nltk_app_wordnet_app.html'
p478
sg11
S'nltk.app.wordnet_app'
p479
sg13
g14
(g15
g16
NtRp480
(dp481
g19
I1
sg20
I0
sg21
I351
sg22
I0
sg23
I251
sg24
I0
sbssg25
S'`\xb5\x9b/\xe6\x00\xcf\x01\xc4\x18\x9e\xfb\xbe|O\xc7'
p482
ssS'nltk_parse_sr'
p483
(dp484
g6
(dp485
g8
I0
sg9
S'nltk_parse_sr.html'
p486
sg11
S'nltk.parse.sr'
p487
sg13
g14
(g15
g16
NtRp488
(dp489
g19
I1
sg20
I0
sg21
I139
sg22
I0
sg23
I68
sg24
I0
sbssg25
S'\xad\x07\x15\xe7S]\x04\xe3\xf2\x80\xf6-U>\xc3O'
p490
ssS'nltk_stem_api'
p491
(dp492
g6
(dp493
g8
I0
sg9
S'nltk_stem_api.html'
p494
sg11
S'nltk.stem.api'
p495
sg13
g14
(g15
g16
NtRp496
(dp497
g19
I1
sg20
I0
sg21
I6
sg22
I0
sg23
I3
sg24
I0
sbssg25
S'}(A_=Rey"\x85=\x0c3\x92T\xce'
p498
ssS'nltk_corpus_reader_nombank'
p499
(dp500
g6
(dp501
g8
I0
sg9
S'nltk_corpus_reader_nombank.html'
p502
sg11
S'nltk.corpus.reader.nombank'
p503
sg13
g14
(g15
g16
NtRp504
(dp505
g19
I1
sg20
I0
sg21
I164
sg22
I0
sg23
I111
sg24
I0
sbssg25
S'\xdcT\xadE\x0eh8\xcdz\xef%\xbbIz\x04\xad'
p506
ssS'nltk_metrics_confusionmatrix'
p507
(dp508
g6
(dp509
g8
I0
sg9
S'nltk_metrics_confusionmatrix.html'
p510
sg11
S'nltk.metrics.confusionmatrix'
p511
sg13
g14
(g15
g16
NtRp512
(dp513
g19
I1
sg20
I0
sg21
I101
sg22
I0
sg23
I25
sg24
I0
sbssg25
S'4M\x81\x1c\xb8\x9b\xb1\x18\xd8\x85\xb7]%_\xfd\x18'
p514
ssS'nltk_draw_dispersion'
p515
(dp516
g6
(dp517
g8
I0
sg9
S'nltk_draw_dispersion.html'
p518
sg11
S'nltk.draw.dispersion'
p519
sg13
g14
(g15
g16
NtRp520
(dp521
g19
I1
sg20
I0
sg21
I27
sg22
I0
sg23
I24
sg24
I0
sbssg25
S'\x9a\x1a\xd8N\xbf\xc3\xcc\xe9\x13\x8d\xfa\xabGYRZ'
p522
ssS'nltk_ccg_combinator'
p523
(dp524
g6
(dp525
g8
I0
sg9
S'nltk_ccg_combinator.html'
p526
sg11
S'nltk.ccg.combinator'
p527
sg13
g14
(g15
g16
NtRp528
(dp529
g19
I1
sg20
I0
sg21
I147
sg22
I0
sg23
I23
sg24
I0
sbssg25
S'\\h\xdfz\xb3,\x92\xab\x8b\x90\xfb\xab\xe1\xc6-Y'
p530
ssS'nltk_app_nemo_app'
p531
(dp532
g6
(dp533
g8
I0
sg9
S'nltk_app_nemo_app.html'
p534
sg11
S'nltk.app.nemo_app'
p535
sg13
g14
(g15
g16
NtRp536
(dp537
g19
I1
sg20
I0
sg21
I99
sg22
I0
sg23
I72
sg24
I0
sbssg25
S'SC[z\xb2\xd0\xc5\x13~bj\rq\xab\xcf\xbe'
p538
ssS'nltk_corpus_reader_chunked'
p539
(dp540
g6
(dp541
g8
I0
sg9
S'nltk_corpus_reader_chunked.html'
p542
sg11
S'nltk.corpus.reader.chunked'
p543
sg13
g14
(g15
g16
NtRp544
(dp545
g19
I1
sg20
I0
sg21
I74
sg22
I0
sg23
I44
sg24
I0
sbssg25
S'\xde\x83\xf9qK\xbd\x83\x9eS\x9c,\xf2A<\xf42'
p546
ssS'nltk_book'
p547
(dp548
g6
(dp549
g8
I0
sg9
S'nltk_book.html'
p550
sg11
S'nltk.book'
p551
sg13
g14
(g15
g16
NtRp552
(dp553
g19
I1
sg20
I0
sg21
I57
sg22
I0
sg23
I18
sg24
I0
sbssg25
S'"K\xfcG\x829 \x81\xb5\xbb\xe5w\x8e\xe8\x8do'
p554
ssS'nltk_corpus_reader_string_category'
p555
(dp556
g6
(dp557
g8
I0
sg9
S'nltk_corpus_reader_string_category.html'
p558
sg11
S'nltk.corpus.reader.string_category'
p559
sg13
g14
(g15
g16
NtRp560
(dp561
g19
I1
sg20
I0
sg21
I22
sg22
I0
sg23
I10
sg24
I0
sbssg25
S'T\xe6\xa0\x06k,$\x8f\x9a\xf9\xc4\xbby\x06\xfd\xe0'
p562
ssS'nltk_parse_generate'
p563
(dp564
g6
(dp565
g8
I0
sg9
S'nltk_parse_generate.html'
p566
sg11
S'nltk.parse.generate'
p567
sg13
g14
(g15
g16
NtRp568
(dp569
g19
I1
sg20
I0
sg21
I31
sg22
I0
sg23
I0
sg24
I0
sbssg25
S'\x80\xa1\x11\xcby\xd4w\xeaU{\xf6\x1d\xa8.\x95h'
p570
ssS'nltk_misc_wordfinder'
p571
(dp572
g6
(dp573
g8
I0
sg9
S'nltk_misc_wordfinder.html'
p574
sg11
S'nltk.misc.wordfinder'
p575
sg13
g14
(g15
g16
NtRp576
(dp577
g19
I1
sg20
I0
sg21
I75
sg22
I0
sg23
I1
sg24
I0
sbssg25
S'Lx\x02\xabN\x9c@`\xaa\xf9]\xb1!j&\x97'
p578
ssS'nltk_sem_logic'
p579
(dp580
g6
(dp581
g8
I0
sg9
S'nltk_sem_logic.html'
p582
sg11
S'nltk.sem.logic'
p583
sg13
g14
(g15
g16
NtRp584
(dp585
g19
I1
sg20
I0
sg21
I1053
sg22
I0
sg23
I125
sg24
I0
sbssg25
S'7\x8as\x0ch\xc0\x95zaS\x06+\x87\x08\x05\xaf'
p586
ssS'nltk_tag_tnt'
p587
(dp588
g6
(dp589
g8
I0
sg9
S'nltk_tag_tnt.html'
p590
sg11
S'nltk.tag.tnt'
p591
sg13
g14
(g15
g16
NtRp592
(dp593
g19
I1
sg20
I0
sg21
I238
sg22
I0
sg23
I220
sg24
I0
sbssg25
S'\xb9z\xa3\xe4\x93L\xc9Q\xce\xe4\x8b\x97\x8f\xc6Pr'
p594
ssS'nltk_classify_tadm'
p595
(dp596
g6
(dp597
g8
I0
sg9
S'nltk_classify_tadm.html'
p598
sg11
S'nltk.classify.tadm'
p599
sg13
g14
(g15
g16
NtRp600
(dp601
g19
I1
sg20
I0
sg21
I54
sg22
I0
sg23
I29
sg24
I0
sbssg25
S'\x95\xca\xdb\x13~\x0bk\x971\x97\x0b\x91\xed\x8bu\x12'
p602
ssS'nltk_metrics_agreement'
p603
(dp604
g6
(dp605
g8
I0
sg9
S'nltk_metrics_agreement.html'
p606
sg11
S'nltk.metrics.agreement'
p607
sg13
g14
(g15
g16
NtRp608
(dp609
g19
I1
sg20
I0
sg21
I182
sg22
I0
sg23
I98
sg24
I0
sbssg25
S'\xda\x12d+\xa3\xb8e\x90\x1a\x10\x16\xb2dG,\t'
p610
ssS'nltk_chat_eliza'
p611
(dp612
g6
(dp613
g8
I0
sg9
S'nltk_chat_eliza.html'
p614
sg11
S'nltk.chat.eliza'
p615
sg13
g14
(g15
g16
NtRp616
(dp617
g19
I1
sg20
I0
sg21
I15
sg22
I0
sg23
I8
sg24
I0
sbssg25
S"\xda\xf2\x19\xa1\x1b\n\xd7\x1by'H:\x07\x81\xf1\xef"
p618
ssS'nltk_corpus_reader_childes'
p619
(dp620
g6
(dp621
g8
I0
sg9
S'nltk_corpus_reader_childes.html'
p622
sg11
S'nltk.corpus.reader.childes'
p623
sg13
g14
(g15
g16
NtRp624
(dp625
g19
I1
sg20
I0
sg21
I217
sg22
I0
sg23
I188
sg24
I0
sbssg25
S'\x0eR\x0b\xfa\xdfL\xd7\xe9\xcb\xbc(<\xb0cK3'
p626
ssS'nltk_stem_wordnet'
p627
(dp628
g6
(dp629
g8
I0
sg9
S'nltk_stem_wordnet.html'
p630
sg11
S'nltk.stem.wordnet'
p631
sg13
g14
(g15
g16
NtRp632
(dp633
g19
I1
sg20
I0
sg21
I13
sg22
I0
sg23
I3
sg24
I0
sbssg25
S'\xfb\xa7N\x1a\x99M,\xb3\x07@\xd0\x14\xaa\xda\x18\xb7'
p634
ssS'nltk_inference_prover9'
p635
(dp636
g6
(dp637
g8
I0
sg9
S'nltk_inference_prover9.html'
p638
sg11
S'nltk.inference.prover9'
p639
sg13
g14
(g15
g16
NtRp640
(dp641
g19
I1
sg20
I0
sg21
I188
sg22
I0
sg23
I144
sg24
I0
sbssg25
S'\xefU\xf97\x87\x12\x99\xe0\xde\x06\x9d\x9e\x8d\xb5\x8db'
p642
ssS'nltk_app_collocations_app'
p643
(dp644
g6
(dp645
g8
I0
sg9
S'nltk_app_collocations_app.html'
p646
sg11
S'nltk.app.collocations_app'
p647
sg13
g14
(g15
g16
NtRp648
(dp649
g19
I1
sg20
I0
sg21
I229
sg22
I0
sg23
I175
sg24
I0
sbssg25
S'\x02\x03\x95\x90"]\xa9\x87z\x1b\x97i\xa4\r\xc7B'
p650
ssS'nltk_tag_stanford'
p651
(dp652
g6
(dp653
g8
I0
sg9
S'nltk_tag_stanford.html'
p654
sg11
S'nltk.tag.stanford'
p655
sg13
g14
(g15
g16
NtRp656
(dp657
g19
I1
sg20
I0
sg21
I69
sg22
I0
sg23
I38
sg24
I0
sbssg25
S'n\xd1\xf6\xacD\xb1\xfe\xbd\xaa\x99\x10B\x11\xc9\xbe\xf7'
p658
ssS'nltk_classify_rte_classify'
p659
(dp660
g6
(dp661
g8
I0
sg9
S'nltk_classify_rte_classify.html'
p662
sg11
S'nltk.classify.rte_classify'
p663
sg13
g14
(g15
g16
NtRp664
(dp665
g19
I1
sg20
I0
sg21
I97
sg22
I0
sg23
I81
sg24
I0
sbssg25
S'\n\xf6bh\xaey\xa9:\xde\x91\x0eB\x83!\x94\x9b'
p666
ssS'nltk_decorators'
p667
(dp668
g6
(dp669
g8
I0
sg9
S'nltk_decorators.html'
p670
sg11
S'nltk.decorators'
p671
sg13
g14
(g15
g16
NtRp672
(dp673
g19
I1
sg20
I0
sg21
I84
sg22
I0
sg23
I35
sg24
I0
sbssg25
S'\xc2\x17TnU\xb8\xf3\x94e;\xd4\xaf^\xc6M\x00'
p674
ssS'nltk_tag_api'
p675
(dp676
g6
(dp677
g8
I0
sg9
S'nltk_tag_api.html'
p678
sg11
S'nltk.tag.api'
p679
sg13
g14
(g15
g16
NtRp680
(dp681
g19
I1
sg20
I0
sg21
I29
sg22
I0
sg23
I9
sg24
I0
sbssg25
S' \xca\x19\xf6\xd9c\x9bn\xd29\x9f\x90\xba\x1f\x84\xbe'
p682
ssS'nltk_parse_rd'
p683
(dp684
g6
(dp685
g8
I0
sg9
S'nltk_parse_rd.html'
p686
sg11
S'nltk.parse.rd'
p687
sg13
g14
(g15
g16
NtRp688
(dp689
g19
I1
sg20
I0
sg21
I215
sg22
I0
sg23
I127
sg24
I0
sbssg25
S'U\xd5\x9c\x7f\xb1\xe9\x03\xd1\x96\x848S\x91*"\xa5'
p690
ssS'nltk_corpus_reader_aligned'
p691
(dp692
g6
(dp693
g8
I0
sg9
S'nltk_corpus_reader_aligned.html'
p694
sg11
S'nltk.corpus.reader.aligned'
p695
sg13
g14
(g15
g16
NtRp696
(dp697
g19
I1
sg20
I0
sg21
I39
sg22
I0
sg23
I5
sg24
I0
sbssg25
S'\x0c\xe8\xda\x1f\xfd;\xd7\xbd\xfd\x94 o\x8b\x92\xa00'
p698
ssS'nltk_examples'
p699
(dp700
g6
(dp701
g8
I0
sg9
S'nltk_examples.html'
p702
sg11
S'nltk.examples'
p703
sg13
g14
(g15
g16
NtRp704
(dp705
g19
I1
sg20
I0
sg21
I0
sg22
I0
sg23
I0
sg24
I0
sbssg25
S'\xb0\xc8pN\xaf>\xa0\xbaz\x144\xe0A9\xb8?'
p706
ssS'nltk_app_concordance_app'
p707
(dp708
g6
(dp709
g8
I0
sg9
S'nltk_app_concordance_app.html'
p710
sg11
S'nltk.app.concordance_app'
p711
sg13
g14
(g15
g16
NtRp712
(dp713
g19
I1
sg20
I0
sg21
I374
sg22
I0
sg23
I292
sg24
I0
sbssg25
S']\xfdlw\xdd\x06\xf2b\x82\xa9\xf4\xea\x89K<\x84'
p714
ssS'nltk_cluster'
p715
(dp716
g6
(dp717
g8
I0
sg9
S'nltk_cluster.html'
p718
sg11
S'nltk.cluster'
p719
sg13
g14
(g15
g16
NtRp720
(dp721
g19
I1
sg20
I0
sg21
I5
sg22
I0
sg23
I0
sg24
I0
sbssg25
S'\xc6\xb5\x86\xe5\xe8JY\x199\xe9\xd3]\x96\x11E\x8c'
p722
ssS'nltk_tag'
p723
(dp724
g6
(dp725
g8
I0
sg9
S'nltk_tag.html'
p726
sg11
S'nltk.tag'
p727
sg13
g14
(g15
g16
NtRp728
(dp729
g19
I1
sg20
I0
sg21
I26
sg22
I0
sg23
I6
sg24
I0
sbssg25
S']n\x19\ro\x86\x12\xb4\xc2Z\x7ft\x06\x0e\xa3\xec'
p730
ssS'nltk_data'
p731
(dp732
g6
(dp733
g8
I0
sg9
S'nltk_data.html'
p734
sg11
S'nltk.data'
p735
sg13
g14
(g15
g16
NtRp736
(dp737
g19
I1
sg20
I0
sg21
I443
sg22
I0
sg23
I62
sg24
I0
sbssg25
S'M8\xe5\x0e\xc8\x08\xd7b\x1e\xb36t\x92:[p'
p738
ssS'nltk_classify'
p739
(dp740
g6
(dp741
g8
I0
sg9
S'nltk_classify.html'
p742
sg11
S'nltk.classify'
p743
sg13
g14
(g15
g16
NtRp744
(dp745
g19
I1
sg20
I0
sg21
I21
sg22
I0
sg23
I0
sg24
I0
sbssg25
S'\x98"\x08\t\x9e\x8f}\xf2\x18\xd8g\xfe\x1c\xb5\x07\xee'
p746
ssS'nltk_tokenize_simple'
p747
(dp748
g6
(dp749
g8
I0
sg9
S'nltk_tokenize_simple.html'
p750
sg11
S'nltk.tokenize.simple'
p751
sg13
g14
(g15
g16
NtRp752
(dp753
g19
I1
sg20
I0
sg21
I37
sg22
I0
sg23
I12
sg24
I0
sbssg25
S'd\x1f\x7f\x9c\xc9\xac!\x9dSa\xe2\x1f~\xf6\xd5\x9c'
p754
ssS'nltk_help'
p755
(dp756
g6
(dp757
g8
I0
sg9
S'nltk_help.html'
p758
sg11
S'nltk.help'
p759
sg13
g14
(g15
g16
NtRp760
(dp761
g19
I1
sg20
I0
sg21
I33
sg22
I0
sg23
I22
sg24
I0
sbssg25
S',K\x91\xc3\x9d\xc3P:i\xe2R\xee\x9d\xde,.'
p762
ssS'nltk_corpus_util'
p763
(dp764
g6
(dp765
g8
I0
sg9
S'nltk_corpus_util.html'
p766
sg11
S'nltk.corpus.util'
p767
sg13
g14
(g15
g16
NtRp768
(dp769
g19
I1
sg20
I0
sg21
I32
sg22
I0
sg23
I6
sg24
I0
sbssg25
S'\x9cM\xe9E\x90\xf3@\xe2\x1eo,\xc6\xefT\x89\xfd'
p770
ssS'nltk_sem_evaluate'
p771
(dp772
g6
(dp773
g8
I0
sg9
S'nltk_sem_evaluate.html'
p774
sg11
S'nltk.sem.evaluate'
p775
sg13
g14
(g15
g16
NtRp776
(dp777
g19
I1
sg20
I0
sg21
I297
sg22
I0
sg23
I110
sg24
I0
sbssg25
S'\x7f4\xd2?\xce\xe1\xb3\xcc\xfe\t\x07\x08<7\xb4!'
p778
ssS'nltk_sem_skolemize'
p779
(dp780
g6
(dp781
g8
I0
sg9
S'nltk_sem_skolemize.html'
p782
sg11
S'nltk.sem.skolemize'
p783
sg13
g14
(g15
g16
NtRp784
(dp785
g19
I1
sg20
I0
sg21
I64
sg22
I0
sg23
I10
sg24
I0
sbssg25
S'<\xd0\x9c`U\\\xca\xa9"\xc0\xc0 \x83\xa8[M'
p786
ssS'nltk_cluster_em'
p787
(dp788
g6
(dp789
g8
I0
sg9
S'nltk_cluster_em.html'
p790
sg11
S'nltk.cluster.em'
p791
sg13
g14
(g15
g16
NtRp792
(dp793
g19
I1
sg20
I0
sg21
I109
sg22
I0
sg23
I95
sg24
I0
sbssg25
S'\xad\xa84#q\xf2\xd8)\x85\x0f3u\xbe\xe5\xf9`'
p794
ssS'nltk_corpus'
p795
(dp796
g6
(dp797
g8
I0
sg9
S'nltk_corpus.html'
p798
sg11
S'nltk.corpus'
p799
sg13
g14
(g15
g16
NtRp800
(dp801
g19
I1
sg20
I0
sg21
I87
sg22
I0
sg23
I24
sg24
I0
sbssg25
S'(I[<\xdaO\xa9\xd5\x06\xf6\xc8\x94v\xb56q'
p802
ssS'nltk_cluster_kmeans'
p803
(dp804
g6
(dp805
g8
I0
sg9
S'nltk_cluster_kmeans.html'
p806
sg11
S'nltk.cluster.kmeans'
p807
sg13
g14
(g15
g16
NtRp808
(dp809
g19
I1
sg20
I0
sg21
I119
sg22
I0
sg23
I100
sg24
I0
sbssg25
S"W\x16!\x1bN\x08&\t\xb2O\xde\x92\xf3'B\xc4"
p810
ssS'nltk_cluster_api'
p811
(dp812
g6
(dp813
g8
I0
sg9
S'nltk_cluster_api.html'
p814
sg11
S'nltk.cluster.api'
p815
sg13
g14
(g15
g16
NtRp816
(dp817
g19
I1
sg20
I0
sg21
I25
sg22
I0
sg23
I16
sg24
I0
sbssg25
S'K\xba}\xad{\rK\xcb\x05lT\r"\xf7\xf29'
p818
ssS'nltk_corpus_reader_lin'
p819
(dp820
g6
(dp821
g8
I0
sg9
S'nltk_corpus_reader_lin.html'
p822
sg11
S'nltk.corpus.reader.lin'
p823
sg13
g14
(g15
g16
NtRp824
(dp825
g19
I1
sg20
I0
sg21
I61
sg22
I0
sg23
I46
sg24
I0
sbssg25
S'^B\n=\xbc\xe9\xea(L\x1f\x0e\xb4}\x01\xa1\xf7'
p826
ssS'nltk_tag_crf'
p827
(dp828
g6
(dp829
g8
I0
sg9
S'nltk_tag_crf.html'
p830
sg11
S'nltk.tag.crf'
p831
sg13
g14
(g15
g16
NtRp832
(dp833
g19
I1
sg20
I0
sg21
I321
sg22
I0
sg23
I261
sg24
I0
sbssg25
S'\xaa\xc42&\\\xc3}\x04\\[\x85\xaf[\x0b*\x0b'
p834
ssS'nltk_yamltags'
p835
(dp836
g6
(dp837
g8
I0
sg9
S'nltk_yamltags.html'
p838
sg11
S'nltk.yamltags'
p839
sg13
g14
(g15
g16
NtRp840
(dp841
g19
I1
sg20
I0
sg21
I19
sg22
I0
sg23
I8
sg24
I0
sbssg25
S'\xc0}s:\x17\x84\x99\r\xf5\xf4\x19\x87\x10\x9a%\x17'
p842
ssS'nltk_draw_cfg'
p843
(dp844
g6
(dp845
g8
I0
sg9
S'nltk_draw_cfg.html'
p846
sg11
S'nltk.draw.cfg'
p847
sg13
g14
(g15
g16
NtRp848
(dp849
g19
I1
sg20
I0
sg21
I350
sg22
I0
sg23
I292
sg24
I0
sbssg25
S'n\xd2\xd0+TuY$\x94\x05\xc1\xea\xf6\xcb\x8e\xc3'
p850
ssS'nltk_metrics_segmentation'
p851
(dp852
g6
(dp853
g8
I0
sg9
S'nltk_metrics_segmentation.html'
p854
sg11
S'nltk.metrics.segmentation'
p855
sg13
g14
(g15
g16
NtRp856
(dp857
g19
I1
sg20
I0
sg21
I66
sg22
I0
sg23
I5
sg24
I0
sbssg25
S'y\xef\t\xb7\xd2\xe0\x9a\xefj\xdc:\x12\x94\x8f\xf3\xf1'
p858
ssS'nltk_corpus_reader_util'
p859
(dp860
g6
(dp861
g8
I0
sg9
S'nltk_corpus_reader_util.html'
p862
sg11
S'nltk.corpus.reader.util'
p863
sg13
g14
(g15
g16
NtRp864
(dp865
g19
I1
sg20
I0
sg21
I358
sg22
I0
sg23
I130
sg24
I0
sbssg25
S'\x8a\x12r\xa3\x12qO8?\xe0[xP\xef\xed\x08'
p866
ssS'nltk_misc_chomsky'
p867
(dp868
g6
(dp869
g8
I0
sg9
S'nltk_misc_chomsky.html'
p870
sg11
S'nltk.misc.chomsky'
p871
sg13
g14
(g15
g16
NtRp872
(dp873
g19
I1
sg20
I0
sg21
I19
sg22
I0
sg23
I8
sg24
I0
sbssg25
S'iPv\x82\xc1f:\xbc\xd1\xbe\xa2}\x85\xa0\x1a\xbd'
p874
ssS'nltk_sem_drt'
p875
(dp876
g6
(dp877
g8
I0
sg9
S'nltk_sem_drt.html'
p878
sg11
S'nltk.sem.drt'
p879
sg13
g14
(g15
g16
NtRp880
(dp881
g19
I1
sg20
I0
sg21
I729
sg22
I0
sg23
I567
sg24
I0
sbssg25
S'\x07\xd4\x1fw\x19\xbb\xe3T\x1c\xde)\x99|\xf2Gz'
p882
ssS'nltk_inference_api'
p883
(dp884
g6
(dp885
g8
I0
sg9
S'nltk_inference_api.html'
p886
sg11
S'nltk.inference.api'
p887
sg13
g14
(g15
g16
NtRp888
(dp889
g19
I1
sg20
I0
sg21
I206
sg22
I0
sg23
I115
sg24
I0
sbssg25
S'\xecLW\xef\xd8g\\JW\xaf~|\x0cV\x1a\x8d'
p890
ssS'nltk_app_chunkparser_app'
p891
(dp892
g6
(dp893
g8
I0
sg9
S'nltk_app_chunkparser_app.html'
p894
sg11
S'nltk.app.chunkparser_app'
p895
sg13
g14
(g15
g16
NtRp896
(dp897
g19
I1
sg20
I0
sg21
I635
sg22
I0
sg23
I557
sg24
I0
sbssg25
S'$\xf6\xf6tt\x0e=\x07\x94r\xc0\xad\xb12\xbb\x8f'
p898
ssS'nltk_app_rdparser_app'
p899
(dp900
g6
(dp901
g8
I0
sg9
S'nltk_app_rdparser_app.html'
p902
sg11
S'nltk.app.rdparser_app'
p903
sg13
g14
(g15
g16
NtRp904
(dp905
g19
I1
sg20
I0
sg21
I498
sg22
I0
sg23
I438
sg24
I0
sbssg25
S'\x7f>\xb0"!\xe1\xe7\xa7\xbf\x8c\xb1@\xc9\xf6\x97\xed'
p906
ssS'nltk_inference'
p907
(dp908
g6
(dp909
g8
I0
sg9
S'nltk_inference.html'
p910
sg11
S'nltk.inference'
p911
sg13
g14
(g15
g16
NtRp912
(dp913
g19
I1
sg20
I0
sg21
I7
sg22
I0
sg23
I0
sg24
I0
sbssg25
S'\xab\xc7K\xd5\xdfA\xb2\xf4J\x9b\x85\xf7e\x8f*\xad'
p914
ssS'nltk_tokenize_api'
p915
(dp916
g6
(dp917
g8
I0
sg9
S'nltk_tokenize_api.html'
p918
sg11
S'nltk.tokenize.api'
p919
sg13
g14
(g15
g16
NtRp920
(dp921
g19
I1
sg20
I0
sg21
I24
sg22
I0
sg23
I11
sg24
I0
sbssg25
S'\t\xdd\xbbW4\xa77\xc7\xeb\xa0b\x86(m\xe9\xf2'
p922
ssS'nltk_corpus_reader_pl196x'
p923
(dp924
g6
(dp925
g8
I0
sg9
S'nltk_corpus_reader_pl196x.html'
p926
sg11
S'nltk.corpus.reader.pl196x'
p927
sg13
g14
(g15
g16
NtRp928
(dp929
g19
I1
sg20
I0
sg21
I159
sg22
I0
sg23
I109
sg24
I0
sbssg25
S'\x9a\x7fi\xfa\x9b+\xfc\x1c\xbcD\xd9Qah)\xb0'
p930
ssS'nltk_inference_resolution'
p931
(dp932
g6
(dp933
g8
I0
sg9
S'nltk_inference_resolution.html'
p934
sg11
S'nltk.inference.resolution'
p935
sg13
g14
(g15
g16
NtRp936
(dp937
g19
I1
sg20
I0
sg21
I400
sg22
I0
sg23
I79
sg24
I0
sbssg25
S'\x14p\xfd\xb6^\x18\x19LZ\xf4\xda\xc7q\xa0B\xad'
p938
ssS'nltk_metrics_association'
p939
(dp940
g6
(dp941
g8
I0
sg9
S'nltk_metrics_association.html'
p942
sg11
S'nltk.metrics.association'
p943
sg13
g14
(g15
g16
NtRp944
(dp945
g19
I1
sg20
I0
sg21
I95
sg22
I0
sg23
I58
sg24
I0
sbssg25
S'c\x92>\xbe?r\xaa\x9b\xf7\xa1\xea\x0b\x83O\xedb'
p946
ssS'nltk_parse_malt'
p947
(dp948
g6
(dp949
g8
I0
sg9
S'nltk_parse_malt.html'
p950
sg11
S'nltk.parse.malt'
p951
sg13
g14
(g15
g16
NtRp952
(dp953
g19
I1
sg20
I0
sg21
I88
sg22
I0
sg23
I66
sg24
I0
sbssg25
S'\x98c\xba\xf5z\xab\xab\xfb\x8d\x82\xd6\xff;d\xc9I'
p954
ssS'nltk_classify_decisiontree'
p955
(dp956
g6
(dp957
g8
I0
sg9
S'nltk_classify_decisiontree.html'
p958
sg11
S'nltk.classify.decisiontree'
p959
sg13
g14
(g15
g16
NtRp960
(dp961
g19
I1
sg20
I0
sg21
I161
sg22
I0
sg23
I65
sg24
I0
sbssg25
S'\x9f\x05\xc2T\x804*#\xa2\xfa\xee\x84\xc1or\x1e'
p962
ssS'nltk_corpus_reader_toolbox'
p963
(dp964
g6
(dp965
g8
I0
sg9
S'nltk_corpus_reader_toolbox.html'
p966
sg11
S'nltk.corpus.reader.toolbox'
p967
sg13
g14
(g15
g16
NtRp968
(dp969
g19
I1
sg20
I0
sg21
I37
sg22
I0
sg23
I21
sg24
I0
sbssg25
S'\xb9\xd1T\xfe\xc2\xe3A\x11\x03\xe8}\x88|\xe9\xd3\xcf'
p970
ssS'nltk_app_srparser_app'
p971
(dp972
g6
(dp973
g8
I0
sg9
S'nltk_app_srparser_app.html'
p974
sg11
S'nltk.app.srparser_app'
p975
sg13
g14
(g15
g16
NtRp976
(dp977
g19
I1
sg20
I0
sg21
I403
sg22
I0
sg23
I356
sg24
I0
sbssg25
S'\xfc\xcd`\x1d\xb8Q\xb3w\xf4\x1b\x96\x8d\xfd0\xd7\x11'
p978
ssS'nltk_parse_chart'
p979
(dp980
g6
(dp981
g8
I0
sg9
S'nltk_parse_chart.html'
p982
sg11
S'nltk.parse.chart'
p983
sg13
g14
(g15
g16
NtRp984
(dp985
g19
I1
sg20
I0
sg21
I645
sg22
I0
sg23
I151
sg24
I0
sbssg25
S'\x1ay\xa7\xa3 y/~\x94\xb3\x85\x19\xee\xb2\xadG'
p986
ssS'nltk_sem_lfg'
p987
(dp988
g6
(dp989
g8
I0
sg9
S'nltk_sem_lfg.html'
p990
sg11
S'nltk.sem.lfg'
p991
sg13
g14
(g15
g16
NtRp992
(dp993
g19
I1
sg20
I0
sg21
I103
sg22
I0
sg23
I84
sg24
I0
sbssg25
S'\xc5 o\xe6\x9b\x97=\xe8\x82\x17\x1c\x95W\xc0\x9b\xe7'
p994
ssS'nltk_chunk_util'
p995
(dp996
g6
(dp997
g8
I0
sg9
S'nltk_chunk_util.html'
p998
sg11
S'nltk.chunk.util'
p999
sg13
g14
(g15
g16
NtRp1000
(dp1001
g19
I1
sg20
I0
sg21
I222
sg22
I0
sg23
I98
sg24
I0
sbssg25
S'<\xaf{(\t\x89(\x9c\xe7\x95\xd7m\xc1\x9e~\xc6'
p1002
ssS'nltk_chunk_named_entity'
p1003
(dp1004
g6
(dp1005
g8
I0
sg9
S'nltk_chunk_named_entity.html'
p1006
sg11
S'nltk.chunk.named_entity'
p1007
sg13
g14
(g15
g16
NtRp1008
(dp1009
g19
I1
sg20
I0
sg21
I212
sg22
I0
sg23
I182
sg24
I0
sbssg25
S'\xa2\x02f\xa4\x17\xd8H\xd6C\\v\xe6\xb4=\x14='
p1010
ssS'nltk_parse_util'
p1011
(dp1012
g6
(dp1013
g8
I0
sg9
S'nltk_parse_util.html'
p1014
sg11
S'nltk.parse.util'
p1015
sg13
g14
(g15
g16
NtRp1016
(dp1017
g19
I1
sg20
I0
sg21
I73
sg22
I0
sg23
I18
sg24
I0
sbssg25
S'NP\xc1\x81~\xf7\xed\x1f,\x1f-p\xf9\xf4\xdb\xfc'
p1018
ssS'nltk_internals'
p1019
(dp1020
g6
(dp1021
g8
I0
sg9
S'nltk_internals.html'
p1022
sg11
S'nltk.internals'
p1023
sg13
g14
(g15
g16
NtRp1024
(dp1025
g19
I1
sg20
I0
sg21
I77
sg22
I0
sg23
I10
sg24
I0
sbssg25
S'yP\xf9\xa6\x12s\xd6\x9b\x87}\x17s\x7fQ_\xac'
p1026
ssS'nltk_parse'
p1027
(dp1028
g6
(dp1029
g8
I0
sg9
S'nltk_parse.html'
p1030
sg11
S'nltk.parse'
p1031
sg13
g14
(g15
g16
NtRp1032
(dp1033
g19
I1
sg20
I0
sg21
I14
sg22
I0
sg23
I0
sg24
I0
sbssg25
S'\nq\xc7\x0b\xa3d\xaf\xc5~\x94-\x7f\xfa\xfb@q'
p1034
ssS'nltk_sem_chat80'
p1035
(dp1036
g6
(dp1037
g8
I0
sg9
S'nltk_sem_chat80.html'
p1038
sg11
S'nltk.sem.chat80'
p1039
sg13
g14
(g15
g16
NtRp1040
(dp1041
g19
I1
sg20
I0
sg21
I260
sg22
I0
sg23
I138
sg24
I0
sbssg25
S'\x99\x85\x82eh\xb3\xcf]3w\xae\xa7Ui\xe5\x8a'
p1042
ssS'nltk_tokenize_treebank'
p1043
(dp1044
g6
(dp1045
g8
I0
sg9
S'nltk_tokenize_treebank.html'
p1046
sg11
S'nltk.tokenize.treebank'
p1047
sg13
g14
(g15
g16
NtRp1048
(dp1049
g19
I1
sg20
I0
sg21
I37
sg22
I0
sg23
I2
sg24
I0
sbssg25
S'\xae=\\\xdb|H\x8avG\xd3\x1dAt\x0f7\x86'
p1050
ssS'nltk_draw_table'
p1051
(dp1052
g6
(dp1053
g8
I0
sg9
S'nltk_draw_table.html'
p1054
sg11
S'nltk.draw.table'
p1055
sg13
g14
(g15
g16
NtRp1056
(dp1057
g19
I1
sg20
I0
sg21
I413
sg22
I0
sg23
I317
sg24
I0
sbssg25
S'\xda\xc6\xa0\x96&\xbb\x06H\xf0]\xdd\x95\xe0\x90\xea\xdb'
p1058
ssS'nltk_classify_maxent'
p1059
(dp1060
g6
(dp1061
g8
I0
sg9
S'nltk_classify_maxent.html'
p1062
sg11
S'nltk.classify.maxent'
p1063
sg13
g14
(g15
g16
NtRp1064
(dp1065
g19
I1
sg20
I0
sg21
I602
sg22
I0
sg23
I186
sg24
I0
sbssg25
S'JE\xd3LgU\x06\xb2E\xe8\x05\xfaQ\xa7\xfd\x0b'
p1066
ssS'nltk_stem'
p1067
(dp1068
g6
(dp1069
g8
I0
sg9
S'nltk_stem.html'
p1070
sg11
S'nltk.stem'
p1071
sg13
g14
(g15
g16
NtRp1072
(dp1073
g19
I1
sg20
I0
sg21
I12
sg22
I0
sg23
I2
sg24
I0
sbssg25
S'R\x10rA\xe1lma\xe3@"\xff\x90\xf2B\xa4'
p1074
ssS'nltk_corpus_reader_api'
p1075
(dp1076
g6
(dp1077
g8
I0
sg9
S'nltk_corpus_reader_api.html'
p1078
sg11
S'nltk.corpus.reader.api'
p1079
sg13
g14
(g15
g16
NtRp1080
(dp1081
g19
I1
sg20
I0
sg21
I173
sg22
I0
sg23
I39
sg24
I0
sbssg25
S'n\xc3\x99\x9b\xdc\xaf>\xa0z5{\xcd\xb6}\xd5y'
p1082
ssS'nltk_probability'
p1083
(dp1084
g6
(dp1085
g8
I0
sg9
S'nltk_probability.html'
p1086
sg11
S'nltk.probability'
p1087
sg13
g14
(g15
g16
NtRp1088
(dp1089
g19
I1
sg20
I0
sg21
I782
sg22
I0
sg23
I478
sg24
I0
sbssg25
S'\xdd\x92\x1a\x96\x85\xf6\xcd&I\xbbcR\xb0\x88\xf9\x80'
p1090
ssS'nltk_draw_util'
p1091
(dp1092
g6
(dp1093
g8
I0
sg9
S'nltk_draw_util.html'
p1094
sg11
S'nltk.draw.util'
p1095
sg13
g14
(g15
g16
NtRp1096
(dp1097
g19
I1
sg20
I0
sg21
I963
sg22
I0
sg23
I784
sg24
I0
sbssg25
S'\xf0\xc6\xbc\xa9\xa1\xa9\xd7u\xfd\xf4\xe6 \xf6\x04\xf0\xe8'
p1098
ssS'nltk_parse_earleychart'
p1099
(dp1100
g6
(dp1101
g8
I0
sg9
S'nltk_parse_earleychart.html'
p1102
sg11
S'nltk.parse.earleychart'
p1103
sg13
g14
(g15
g16
NtRp1104
(dp1105
g19
I1
sg20
I0
sg21
I214
sg22
I0
sg23
I15
sg24
I0
sbssg25
S'\xd7.\xcb\xdcV`\x1e-\x07\x1c\xddV4!\xe3\xb6'
p1106
ssS'nltk_stem_lancaster'
p1107
(dp1108
g6
(dp1109
g8
I0
sg9
S'nltk_stem_lancaster.html'
p1110
sg11
S'nltk.stem.lancaster'
p1111
sg13
g14
(g15
g16
NtRp1112
(dp1113
g19
I1
sg20
I0
sg21
I82
sg22
I0
sg23
I5
sg24
I0
sbssg25
S'\x00\x03<\xb7\x17\xc4$\xdb\nt\xf5\xe0x\xd2_!'
p1114
ssS'nltk_sem_cooper_storage'
p1115
(dp1116
g6
(dp1117
g8
I0
sg9
S'nltk_sem_cooper_storage.html'
p1118
sg11
S'nltk.sem.cooper_storage'
p1119
sg13
g14
(g15
g16
NtRp1120
(dp1121
g19
I1
sg20
I0
sg21
I66
sg22
I0
sg23
I29
sg24
I0
sbssg25
S"W\xe4o\xe1\xfe\xb4q0'\x8c@\\\xa4\x97+X"
p1122
ssS'nltk_chat_rude'
p1123
(dp1124
g6
(dp1125
g8
I0
sg9
S'nltk_chat_rude.html'
p1126
sg11
S'nltk.chat.rude'
p1127
sg13
g14
(g15
g16
NtRp1128
(dp1129
g19
I1
sg20
I0
sg21
I14
sg22
I0
sg23
I7
sg24
I0
sbssg25
S'\xe0"\x160t\xd4d\xc7\xaf\xda\xe6n:\xa0\x8e\xdb'
p1130
ssS'nltk_classify_util'
p1131
(dp1132
g6
(dp1133
g8
I0
sg9
S'nltk_classify_util.html'
p1134
sg11
S'nltk.classify.util'
p1135
sg13
g14
(g15
g16
NtRp1136
(dp1137
g19
I1
sg20
I0
sg21
I166
sg22
I0
sg23
I127
sg24
I0
sbssg25
S'y\x12\t)<\xf0\xe3\xd2\xb8\xefxK\xb6\x91\xb0\xff'
p1138
ssS'nltk_app_chartparser_app'
p1139
(dp1140
g6
(dp1141
g8
I0
sg9
S'nltk_app_chartparser_app.html'
p1142
sg11
S'nltk.app.chartparser_app'
p1143
sg13
g14
(g15
g16
NtRp1144
(dp1145
g19
I1
sg20
I0
sg21
I1259
sg22
I0
sg23
I1066
sg24
I0
sbssg25
S'W\x8a\xb4\x99\xbe\xd7\x1f\x93@*9h\xea@\xa8K'
p1146
ssS'nltk_corpus_reader_tagged'
p1147
(dp1148
g6
(dp1149
g8
I0
sg9
S'nltk_corpus_reader_tagged.html'
p1150
sg11
S'nltk.corpus.reader.tagged'
p1151
sg13
g14
(g15
g16
NtRp1152
(dp1153
g19
I1
sg20
I0
sg21
I105
sg22
I0
sg23
I22
sg24
I0
sbssg25
S'\xab1\xd3\xf5\x9eL\x86\x9bIm\xf0\xbaVI&-'
p1154
ssS'nltk_corpus_reader_timit'
p1155
(dp1156
g6
(dp1157
g8
I0
sg9
S'nltk_corpus_reader_timit.html'
p1158
sg11
S'nltk.corpus.reader.timit'
p1159
sg13
g14
(g15
g16
NtRp1160
(dp1161
g19
I1
sg20
I0
sg21
I182
sg22
I0
sg23
I137
sg24
I0
sbssg25
S'\x91}z\tE\x81P\xa6\xb4\xe2\x7f_\x9b\x8f\xf2\xb2'
p1162
ssS'nltk_parse_featurechart'
p1163
(dp1164
g6
(dp1165
g8
I0
sg9
S'nltk_parse_featurechart.html'
p1166
sg11
S'nltk.parse.featurechart'
p1167
sg13
g14
(g15
g16
NtRp1168
(dp1169
g19
I1
sg20
I0
sg21
I234
sg22
I0
sg23
I20
sg24
I0
sbssg25
S'\x1f\x86j\xba\xf7\x94\xd0\x1d\x1d\xfb\x99\x15z\x92=u'
p1170
ssS'nltk_sem_hole'
p1171
(dp1172
g6
(dp1173
g8
I0
sg9
S'nltk_sem_hole.html'
p1174
sg11
S'nltk.sem.hole'
p1175
sg13
g14
(g15
g16
NtRp1176
(dp1177
g19
I1
sg20
I0
sg21
I172
sg22
I0
sg23
I129
sg24
I0
sbssg25
S'Q\xd3\xdf\x01#8\xa5P\xc5&\x14#\xcc\xb8R\x86'
p1178
ssS'nltk_misc_babelfish'
p1179
(dp1180
g6
(dp1181
g8
I0
sg9
S'nltk_misc_babelfish.html'
p1182
sg11
S'nltk.misc.babelfish'
p1183
sg13
g14
(g15
g16
NtRp1184
(dp1185
g19
I1
sg20
I0
sg21
I78
sg22
I0
sg23
I46
sg24
I0
sbssg25
S'\xe3\xcb\xabB\xb0\xccZ=\x9cp\x9b\xb6\x11\xb4\xaa\xa7'
p1186
ssS'nltk_lazyimport'
p1187
(dp1188
g6
(dp1189
g8
I0
sg9
S'nltk_lazyimport.html'
p1190
sg11
S'nltk.lazyimport'
p1191
sg13
g14
(g15
g16
NtRp1192
(dp1193
g19
I1
sg20
I0
sg21
I53
sg22
I0
sg23
I28
sg24
I0
sbssg25
S'k\xb6<\x82J9\x8dl\xe6\x93\x8e\xb6@\xa27\\'
p1194
ssS'nltk_tag_sequential'
p1195
(dp1196
g6
(dp1197
g8
I0
sg9
S'nltk_tag_sequential.html'
p1198
sg11
S'nltk.tag.sequential'
p1199
sg13
g14
(g15
g16
NtRp1200
(dp1201
g19
I1
sg20
I0
sg21
I205
sg22
I0
sg23
I66
sg24
I0
sbssg25
S'h\xe2_\x1bTc\x9a\xa3\x02/I\xa8\x06\x1fN"'
p1202
ssS'nltk_ccg_chart'
p1203
(dp1204
g6
(dp1205
g8
I0
sg9
S'nltk_ccg_chart.html'
p1206
sg11
S'nltk.ccg.chart'
p1207
sg13
g14
(g15
g16
NtRp1208
(dp1209
g19
I1
sg20
I0
sg21
I186
sg22
I0
sg23
I14
sg24
I0
sbssg25
S'7r\xe2%!\x08<\xb4\xa42\x9a\xc2.i^X'
p1210
ssS'nltk_corpus_reader_cmudict'
p1211
(dp1212
g6
(dp1213
g8
I0
sg9
S'nltk_corpus_reader_cmudict.html'
p1214
sg11
S'nltk.corpus.reader.cmudict'
p1215
sg13
g14
(g15
g16
NtRp1216
(dp1217
g19
I1
sg20
I0
sg21
I25
sg22
I0
sg23
I13
sg24
I0
sbssg25
S'\x80/\\N<j\x1d\x0e\xfd\x19\xcc\xd07Z\x94\xdd'
p1218
ssS'nltk_sem_linearlogic'
p1219
(dp1220
g6
(dp1221
g8
I0
sg9
S'nltk_sem_linearlogic.html'
p1222
sg11
S'nltk.sem.linearlogic'
p1223
sg13
g14
(g15
g16
NtRp1224
(dp1225
g19
I1
sg20
I0
sg21
I220
sg22
I0
sg23
I155
sg24
I0
sbssg25
S'\xbd\xec\x9b!\xb3\x11:\x83\xb2y\xc1e\xa9\x03\xddf'
p1226
ssS'nltk_classify_scikitlearn'
p1227
(dp1228
g6
(dp1229
g8
I0
sg9
S'nltk_classify_scikitlearn.html'
p1230
sg11
S'nltk.classify.scikitlearn'
p1231
sg13
g14
(g15
g16
NtRp1232
(dp1233
g19
I1
sg20
I0
sg21
I80
sg22
I0
sg23
I20
sg24
I0
sbssg25
S'\xe4.47\xcf|[+\x81\xf1\xc2E\xd0\xfc\xa3Q'
p1234
ssS'nltk_model'
p1235
(dp1236
g6
(dp1237
g8
I0
sg9
S'nltk_model.html'
p1238
sg11
S'nltk.model'
p1239
sg13
g14
(g15
g16
NtRp1240
(dp1241
g19
I1
sg20
I0
sg21
I1
sg22
I0
sg23
I0
sg24
I0
sbssg25
S'\x9cQ\xd7\xca\x03\xf5h\xcd\xa5l\xd0\xaa=K\x19\x1a'
p1242
ssS'nltk_model_ngram'
p1243
(dp1244
g6
(dp1245
g8
I0
sg9
S'nltk_model_ngram.html'
p1246
sg11
S'nltk.model.ngram'
p1247
sg13
g14
(g15
g16
NtRp1248
(dp1249
g19
I1
sg20
I0
sg21
I71
sg22
I0
sg23
I18
sg24
I0
sbssg25
S'\xd3?\x96kJ\x1d.\x94\xecw@\xfa\xec\xcat\xe6'
p1250
ssS'nltk_inference_discourse'
p1251
(dp1252
g6
(dp1253
g8
I0
sg9
S'nltk_inference_discourse.html'
p1254
sg11
S'nltk.inference.discourse'
p1255
sg13
g14
(g15
g16
NtRp1256
(dp1257
g19
I1
sg20
I0
sg21
I289
sg22
I0
sg23
I239
sg24
I0
sbssg25
S'\xb2e\x15\xdf\xa4\xd2$u\xce\x12Dj\xe7\xe9^\xc3'
p1258
ssS'nltk_util'
p1259
(dp1260
g6
(dp1261
g8
I0
sg9
S'nltk_util.html'
p1262
sg11
S'nltk.util'
p1263
sg13
g14
(g15
g16
NtRp1264
(dp1265
g19
I1
sg20
I0
sg21
I458
sg22
I0
sg23
I153
sg24
I0
sbssg25
S'\xf7\xff\x94e\x10\xa4\xfb\xeb\xa5aR\\\xa6\x86\x8eO'
p1266
ssS'nltk_cluster_util'
p1267
(dp1268
g6
(dp1269
g8
I0
sg9
S'nltk_cluster_util.html'
p1270
sg11
S'nltk.cluster.util'
p1271
sg13
g14
(g15
g16
NtRp1272
(dp1273
g19
I1
sg20
I0
sg21
I156
sg22
I0
sg23
I128
sg24
I0
sbssg25
S'^\xf7\xbe-,m\r\xe3\xba84FI2\x83\x8a'
p1274
ssS'nltk_corpus_reader_wordlist'
p1275
(dp1276
g6
(dp1277
g8
I0
sg9
S'nltk_corpus_reader_wordlist.html'
p1278
sg11
S'nltk.corpus.reader.wordlist'
p1279
sg13
g14
(g15
g16
NtRp1280
(dp1281
g19
I1
sg20
I0
sg21
I17
sg22
I0
sg23
I4
sg24
I0
sbssg25
S'\xb0\xdf4ZT\xf7\xb8g\x81\xdd\xde\x0b%\x81&\x1e'
p1282
ssS'nltk_corpus_reader_nps_chat'
p1283
(dp1284
g6
(dp1285
g8
I0
sg9
S'nltk_corpus_reader_nps_chat.html'
p1286
sg11
S'nltk.corpus.reader.nps_chat'
p1287
sg13
g14
(g15
g16
NtRp1288
(dp1289
g19
I1
sg20
I0
sg21
I38
sg22
I0
sg23
I12
sg24
I0
sbssg25
S'\x1a\xdf\r\xec2\xca\x00M\x94\x1aK\x00\x0b\x95\xbe\x81'
p1290
ssS'nltk_stem_regexp'
p1291
(dp1292
g6
(dp1293
g8
I0
sg9
S'nltk_stem_regexp.html'
p1294
sg11
S'nltk.stem.regexp'
p1295
sg13
g14
(g15
g16
NtRp1296
(dp1297
g19
I1
sg20
I0
sg21
I17
sg22
I0
sg23
I3
sg24
I0
sbssg25
S'\xd8\xa5\x03\x84\xf2\xde\x16K\x1a\xc9T;SR\xdd\xca'
p1298
ssS'nltk_chat_suntsu'
p1299
(dp1300
g6
(dp1301
g8
I0
sg9
S'nltk_chat_suntsu.html'
p1302
sg11
S'nltk.chat.suntsu'
p1303
sg13
g14
(g15
g16
NtRp1304
(dp1305
g19
I1
sg20
I0
sg21
I15
sg22
I0
sg23
I7
sg24
I0
sbssg25
S'>\\\t\x85\xb0\xe2u+\xad\xb0\xee\x8f)t\xcaU'
p1306
ssS'nltk_metrics_scores'
p1307
(dp1308
g6
(dp1309
g8
I0
sg9
S'nltk_metrics_scores.html'
p1310
sg11
S'nltk.metrics.scores'
p1311
sg13
g14
(g15
g16
NtRp1312
(dp1313
g19
I1
sg20
I0
sg21
I92
sg22
I0
sg23
I56
sg24
I0
sbssg25
S':r\xd5\xa7\xcd\xe0Y\xb1\x10\x04\xd3\xa3\xf8\x81\xb6\xf8'
p1314
ssS'nltk_chunk'
p1315
(dp1316
g6
(dp1317
g8
I0
sg9
S'nltk_chunk.html'
p1318
sg11
S'nltk.chunk'
p1319
sg13
g14
(g15
g16
NtRp1320
(dp1321
g19
I1
sg20
I0
sg21
I19
sg22
I0
sg23
I10
sg24
I0
sbssg25
S'\x9b\xc5\x10\x88\x1e\x1e%\x12\xdd0\x8c\xed\x19\xac\x1bP'
p1322
ssS'nltk_sem_glue'
p1323
(dp1324
g6
(dp1325
g8
I0
sg9
S'nltk_sem_glue.html'
p1326
sg11
S'nltk.sem.glue'
p1327
sg13
g14
(g15
g16
NtRp1328
(dp1329
g19
I1
sg20
I0
sg21
I432
sg22
I0
sg23
I371
sg24
I0
sbssg25
S'\x1dMiG\xa6\x9a/\xc60\xcc\x17\xbb\xb1eO-'
p1330
ssS'nltk_corpus_reader_bracket_parse'
p1331
(dp1332
g6
(dp1333
g8
I0
sg9
S'nltk_corpus_reader_bracket_parse.html'
p1334
sg11
S'nltk.corpus.reader.bracket_parse'
p1335
sg13
g14
(g15
g16
NtRp1336
(dp1337
g19
I1
sg20
I0
sg21
I64
sg22
I0
sg23
I27
sg24
I0
sbssg25
S'\xb04\xecRt\x0f\xeb\xaf\xa1\xf0#g:\x9a^\x82'
p1338
ssS'nltk_ccg'
p1339
(dp1340
g6
(dp1341
g8
I0
sg9
S'nltk_ccg.html'
p1342
sg11
S'nltk.ccg'
p1343
sg13
g14
(g15
g16
NtRp1344
(dp1345
g19
I1
sg20
I0
sg21
I4
sg22
I0
sg23
I0
sg24
I0
sbssg25
S'.0\xf9\xd6\xec\xc8\xfbX\x85\xcdu\xf61F\x0cn'
p1346
ssS'nltk_sem_relextract'
p1347
(dp1348
g6
(dp1349
g8
I0
sg9
S'nltk_sem_relextract.html'
p1350
sg11
S'nltk.sem.relextract'
p1351
sg13
g14
(g15
g16
NtRp1352
(dp1353
g19
I1
sg20
I0
sg21
I200
sg22
I0
sg23
I175
sg24
I0
sbssg25
S'\x1d\x7f\xee\xc5\x8dL\x88s\xa2\xdbY\xdb\xb8\x15T\x13'
p1354
ssS'nltk_parse_nonprojectivedependencyparser'
p1355
(dp1356
g6
(dp1357
g8
I0
sg9
S'nltk_parse_nonprojectivedependencyparser.html'
p1358
sg11
S'nltk.parse.nonprojectivedependencyparser'
p1359
sg13
g14
(g15
g16
NtRp1360
(dp1361
g19
I1
sg20
I0
sg21
I315
sg22
I0
sg23
I214
sg24
I0
sbssg25
S'\x8ba\x93k\t\xe0\xe3=\xf3\xa5\x0e\x1f\xe2\x0b\xa7\xf0'
p1362
ssS'nltk_compat'
p1363
(dp1364
g6
(dp1365
g8
I0
sg9
S'nltk_compat.html'
p1366
sg11
S'nltk.compat'
p1367
sg13
g14
(g15
g16
NtRp1368
(dp1369
g19
I1
sg20
I0
sg21
I75
sg22
I0
sg23
I9
sg24
I0
sbssg25
S'\xed\x10\xff\xaf4\xff\xfau1\xda\x94\xf1V\xfc\x1c\xb5'
p1370
ssS'nltk_draw_tree'
p1371
(dp1372
g6
(dp1373
g8
I0
sg9
S'nltk_draw_tree.html'
p1374
sg11
S'nltk.draw.tree'
p1375
sg13
g14
(g15
g16
NtRp1376
(dp1377
g19
I1
sg20
I0
sg21
I560
sg22
I0
sg23
I504
sg24
I0
sbssg25
S"\xf2\x93\x11*\xa2\x81\xd3\xd4~ln\xaa$\xefv'"
p1378
ssS'nltk_corpus_reader_indian'
p1379
(dp1380
g6
(dp1381
g8
I0
sg9
S'nltk_corpus_reader_indian.html'
p1382
sg11
S'nltk.corpus.reader.indian'
p1383
sg13
g14
(g15
g16
NtRp1384
(dp1385
g19
I1
sg20
I0
sg21
I42
sg22
I0
sg23
I27
sg24
I0
sbssg25
S"\xf0Dr<'\x1c\xa3\xd55k\xea\x00@4\x1b\xac"
p1386
ssS'nltk_inference_tableau'
p1387
(dp1388
g6
(dp1389
g8
I0
sg9
S'nltk_inference_tableau.html'
p1390
sg11
S'nltk.inference.tableau'
p1391
sg13
g14
(g15
g16
NtRp1392
(dp1393
g19
I1
sg20
I0
sg21
I427
sg22
I0
sg23
I348
sg24
I0
sbssg25
S'E\xbc\xe8[s\xfe\xfe\x9a\x10\xc0\x0c\xaeUQ\x92\x1b'
p1394
ssS'nltk_corpus_reader_bnc'
p1395
(dp1396
g6
(dp1397
g8
I0
sg9
S'nltk_corpus_reader_bnc.html'
p1398
sg11
S'nltk.corpus.reader.bnc'
p1399
sg13
g14
(g15
g16
NtRp1400
(dp1401
g19
I1
sg20
I0
sg21
I113
sg22
I0
sg23
I86
sg24
I0
sbssg25
S'\x17\xe5-\xf4Y6\x00\xa3\xde\x1f\x81\xdcx>\x80\xfc'
p1402
ssS'nltk_stem_porter'
p1403
(dp1404
g6
(dp1405
g8
I0
sg9
S'nltk_stem_porter.html'
p1406
sg11
S'nltk.stem.porter'
p1407
sg13
g14
(g15
g16
NtRp1408
(dp1409
g19
I1
sg20
I0
sg21
I274
sg22
I0
sg23
I44
sg24
I0
sbssg25
S';\x80\xe5x\xbc\xd3v\xe5\xe1\x0c&\xe1}qr\x9f'
p1410
ssS'nltk_inference_mace'
p1411
(dp1412
g6
(dp1413
g8
I0
sg9
S'nltk_inference_mace.html'
p1414
sg11
S'nltk.inference.mace'
p1415
sg13
g14
(g15
g16
NtRp1416
(dp1417
g19
I1
sg20
I0
sg21
I146
sg22
I0
sg23
I113
sg24
I0
sbssg25
S'\x11\x84*\x9d\xf2\x08\xd9vB3\xf3\x85Nje\x00'
p1418
ssS'nltk_sem_drt_glue_demo'
p1419
(dp1420
g6
(dp1421
g8
I0
sg9
S'nltk_sem_drt_glue_demo.html'
p1422
sg11
S'nltk.sem.drt_glue_demo'
p1423
sg13
g14
(g15
g16
NtRp1424
(dp1425
g19
I1
sg20
I0
sg21
I263
sg22
I0
sg23
I221
sg24
I0
sbssg25
S'\x92\xb4\xd0\rW\x96\x97fl\xa0\xcb\x08<j\x15\xa0'
p1426
ssS'nltk_stem_isri'
p1427
(dp1428
g6
(dp1429
g8
I0
sg9
S'nltk_stem_isri.html'
p1430
sg11
S'nltk.stem.isri'
p1431
sg13
g14
(g15
g16
NtRp1432
(dp1433
g19
I1
sg20
I0
sg21
I222
sg22
I0
sg23
I201
sg24
I0
sbssg25
S'\xcb\xdfJ\x86\xc5\x81\xd8\xef\x0c\xdf\xd4\xe0\x99\xda\xcf{'
p1434
ssS'nltk_inference_nonmonotonic'
p1435
(dp1436
g6
(dp1437
g8
I0
sg9
S'nltk_inference_nonmonotonic.html'
p1438
sg11
S'nltk.inference.nonmonotonic'
p1439
sg13
g14
(g15
g16
NtRp1440
(dp1441
g19
I1
sg20
I0
sg21
I309
sg22
I0
sg23
I271
sg24
I0
sbssg25
S'\xf8\xe47K\x9b\x9dU\x1b\xa7\x89Qa\x8c\xc2\xbb\xb7'
p1442
ssS'nltk_sem_boxer'
p1443
(dp1444
g6
(dp1445
g8
I0
sg9
S'nltk_sem_boxer.html'
p1446
sg11
S'nltk.sem.boxer'
p1447
sg13
g14
(g15
g16
NtRp1448
(dp1449
g19
I1
sg20
I0
sg21
I836
sg22
I0
sg23
I673
sg24
I0
sbssg25
S'\x1d\x9b@\x92\tt1\xb0\xe2\xc6\xef\x8a\xd2L\x9dF'
p1450
ssS'nltk_ccg_api'
p1451
(dp1452
g6
(dp1453
g8
I0
sg9
S'nltk_ccg_api.html'
p1454
sg11
S'nltk.ccg.api'
p1455
sg13
g14
(g15
g16
NtRp1456
(dp1457
g19
I1
sg20
I0
sg21
I175
sg22
I0
sg23
I24
sg24
I0
sbssg25
S'\x08l\x92\x08\xbc\xe9\x89\xc3+Dw\xde\t\x08\xc2\xc4'
p1458
ssS'nltk_sem_util'
p1459
(dp1460
g6
(dp1461
g8
I0
sg9
S'nltk_sem_util.html'
p1462
sg11
S'nltk.sem.util'
p1463
sg13
g14
(g15
g16
NtRp1464
(dp1465
g19
I1
sg20
I0
sg21
I127
sg22
I0
sg23
I69
sg24
I0
sbssg25
S'\xe4\x95J\xfa\\\xe3\xb3\xcf\x045\x19\xbdD$\xca\xf3'
p1466
ssS'nltk_tokenize_util'
p1467
(dp1468
g6
(dp1469
g8
I0
sg9
S'nltk_tokenize_util.html'
p1470
sg11
S'nltk.tokenize.util'
p1471
sg13
g14
(g15
g16
NtRp1472
(dp1473
g19
I1
sg20
I0
sg21
I31
sg22
I0
sg23
I3
sg24
I0
sbssg25
S'\xd7\x9dY\xc1\xb8\xba\xa7\xcf*\xf3+.\x1d\x155?'
p1474
ssS'nltk_corpus_reader_ycoe'
p1475
(dp1476
g6
(dp1477
g8
I0
sg9
S'nltk_corpus_reader_ycoe.html'
p1478
sg11
S'nltk.corpus.reader.ycoe'
p1479
sg13
g14
(g15
g16
NtRp1480
(dp1481
g19
I1
sg20
I0
sg21
I71
sg22
I0
sg23
I43
sg24
I0
sbssg25
S'\xbdU.\xb4\xc6\xa8r"\xb6\xe9~7\xb7\xa2\x0f\xbe'
p1482
ssS'nltk_tree'
p1483
(dp1484
g6
(dp1485
g8
I0
sg9
S'nltk_tree.html'
p1486
sg11
S'nltk.tree'
p1487
sg13
g14
(g15
g16
NtRp1488
(dp1489
g19
I1
sg20
I0
sg21
I611
sg22
I0
sg23
I157
sg24
I0
sbssg25
S'\x1a\xabA\xe9\xf9\xa3}M*\xc9\xab\x92U\x1c\x8a\xae'
p1490
ssS'nltk_metrics_distance'
p1491
(dp1492
g6
(dp1493
g8
I0
sg9
S'nltk_metrics_distance.html'
p1494
sg11
S'nltk.metrics.distance'
p1495
sg13
g14
(g15
g16
NtRp1496
(dp1497
g19
I1
sg20
I0
sg21
I61
sg22
I0
sg23
I22
sg24
I0
sbssg25
S'\t0\xfd\x9c\xc1\xddg\xd92A\xab"mh=\xd7'
p1498
ssS'nltk_chunk_regexp'
p1499
(dp1500
g6
(dp1501
g8
I0
sg9
S'nltk_chunk_regexp.html'
p1502
sg11
S'nltk.chunk.regexp'
p1503
sg13
g14
(g15
g16
NtRp1504
(dp1505
g19
I1
sg20
I0
sg21
I362
sg22
I0
sg23
I80
sg24
I0
sbssg25
S'\xf7\xf9\xd4\xe1\xd0\\b-\x9a?\xb9\xf1&\x83\xbb\xab'
p1506
ssS'nltk_parse_pchart'
p1507
(dp1508
g6
(dp1509
g8
I0
sg9
S'nltk_parse_pchart.html'
p1510
sg11
S'nltk.parse.pchart'
p1511
sg13
g14
(g15
g16
NtRp1512
(dp1513
g19
I1
sg20
I0
sg21
I198
sg22
I0
sg23
I69
sg24
I0
sbssg25
S'q*\xe5#X\xb6\xcc\xbf&\xe9\xb6D\x7f`2\x14'
p1514
ssS'nltk_metrics'
p1515
(dp1516
g6
(dp1517
g8
I0
sg9
S'nltk_metrics.html'
p1518
sg11
S'nltk.metrics'
p1519
sg13
g14
(g15
g16
NtRp1520
(dp1521
g19
I1
sg20
I0
sg21
I8
sg22
I0
sg23
I0
sg24
I0
sbssg25
S'\x137\x99\x8f{\x14\xd6\xf6\xf8-T\xeb\xc40\\\xb7'
p1522
ssS'nltk_corpus_reader_ieer'
p1523
(dp1524
g6
(dp1525
g8
I0
sg9
S'nltk_corpus_reader_ieer.html'
p1526
sg11
S'nltk.corpus.reader.ieer'
p1527
sg13
g14
(g15
g16
NtRp1528
(dp1529
g19
I1
sg20
I0
sg21
I51
sg22
I0
sg23
I33
sg24
I0
sbssg25
S'4\xaa\x83\x00\xc1\xcaBd\xabN\xc3 X\xb4J('
p1530
ssS'nltk_chat'
p1531
(dp1532
g6
(dp1533
g8
I0
sg9
S'nltk_chat.html'
p1534
sg11
S'nltk.chat'
p1535
sg13
g14
(g15
g16
NtRp1536
(dp1537
g19
I1
sg20
I0
sg21
I23
sg22
I0
sg23
I13
sg24
I0
sbssg25
S'Lb\xe14\xc7\x83\xfa\xe1=-0\x0fq\xdc\xf9\x03'
p1538
ssS'nltk_corpus_reader_wordnet'
p1539
(dp1540
g6
(dp1541
g8
I0
sg9
S'nltk_corpus_reader_wordnet.html'
p1542
sg11
S'nltk.corpus.reader.wordnet'
p1543
sg13
g14
(g15
g16
NtRp1544
(dp1545
g19
I1
sg20
I0
sg21
I773
sg22
I0
sg23
I158
sg24
I0
sbssg25
S'>nE\x87v\x1b\x01\x0c0\x06\xdf\xa3\x92+\xf6\xf0'
p1546
ssS'nltk_parse_generate2'
p1547
(dp1548
g6
(dp1549
g8
I0
sg9
S'nltk_parse_generate2.html'
p1550
sg11
S'nltk.parse.generate2'
p1551
sg13
g14
(g15
g16
NtRp1552
(dp1553
g19
I1
sg20
I0
sg21
I49
sg22
I0
sg23
I38
sg24
I0
sbssg25
S'/E\x17`{\x07W\xcc\x84e\x93\xe0Rx2\xc8'
p1554
ssS'nltk_text'
p1555
(dp1556
g6
(dp1557
g8
I0
sg9
S'nltk_text.html'
p1558
sg11
S'nltk.text'
p1559
sg13
g14
(g15
g16
NtRp1560
(dp1561
g19
I1
sg20
I0
sg21
I257
sg22
I0
sg23
I169
sg24
I0
sbssg25
S'\x0e\x9b\xb3r8E\xaf\x8d]\x11Q\xff~~\x91d'
p1562
ssS'nltk_sourcedstring'
p1563
(dp1564
g6
(dp1565
g8
I0
sg9
S'nltk_sourcedstring.html'
p1566
sg11
S'nltk.sourcedstring'
p1567
sg13
g14
(g15
g16
NtRp1568
(dp1569
g19
I1
sg20
I0
sg21
I637
sg22
I0
sg23
I105
sg24
I0
sbssg25
S'\xb3l\xbb\xe4|\xd5\xc6\xd5\xbb\x04\xda\t\x18V\xe5x'
p1570
ssS'nltk_corpus_reader_rte'
p1571
(dp1572
g6
(dp1573
g8
I0
sg9
S'nltk_corpus_reader_rte.html'
p1574
sg11
S'nltk.corpus.reader.rte'
p1575
sg13
g14
(g15
g16
NtRp1576
(dp1577
g19
I1
sg20
I0
sg21
I40
sg22
I0
sg23
I28
sg24
I0
sbssg25
S'P4\xccI\xf5\xb3\xf0\x91\x83o=X\x19;b\xd5'
p1578
ssS'nltk_misc_sort'
p1579
(dp1580
g6
(dp1581
g8
I0
sg9
S'nltk_misc_sort.html'
p1582
sg11
S'nltk.misc.sort'
p1583
sg13
g14
(g15
g16
NtRp1584
(dp1585
g19
I1
sg20
I0
sg21
I83
sg22
I0
sg23
I9
sg24
I0
sbssg25
S'.\xbd\xfa\x12,\xcd{\xab\xea\xc0\xc6s\x9c\xa1\xc9\x13'
p1586
ssS'nltk_classify_naivebayes'
p1587
(dp1588
g6
(dp1589
g8
I0
sg9
S'nltk_classify_naivebayes.html'
p1590
sg11
S'nltk.classify.naivebayes'
p1591
sg13
g14
(g15
g16
NtRp1592
(dp1593
g19
I1
sg20
I0
sg21
I90
sg22
I0
sg23
I7
sg24
I0
sbssg25
S'\xe5\xfe\x9d\xb1\x88\xc1\x11\xc7\x05\x0b\xc9o\x01y\x80\xde'
p1594
ssS'nltk_corpus_reader_ipipan'
p1595
(dp1596
g6
(dp1597
g8
I0
sg9
S'nltk_corpus_reader_ipipan.html'
p1598
sg11
S'nltk.corpus.reader.ipipan'
p1599
sg13
g14
(g15
g16
NtRp1600
(dp1601
g19
I1
sg20
I0
sg21
I212
sg22
I0
sg23
I169
sg24
I0
sbssg25
S'\x8d:m\xcb\xad3\xbdOH\xd9\x8a\x1ee-\xf1\r'
p1602
ssS'nltk_tag_simplify'
p1603
(dp1604
g6
(dp1605
g8
I0
sg9
S'nltk_tag_simplify.html'
p1606
sg11
S'nltk.tag.simplify'
p1607
sg13
g14
(g15
g16
NtRp1608
(dp1609
g19
I1
sg20
I0
sg21
I44
sg22
I0
sg23
I33
sg24
I0
sbssg25
S'\xc8\xf66<~\xd0\x84\xed\xe7S\x07\xb1\xfc&\x92\xe4'
p1610
ssS'nltk'
p1611
(dp1612
g6
(dp1613
g8
I0
sg9
S'nltk.html'
p1614
sg11
g1611
sg13
g14
(g15
g16
NtRp1615
(dp1616
g19
I1
sg20
I0
sg21
I77
sg22
I0
sg23
I10
sg24
I0
sbssg25
S'yP\xf9\xa6\x12s\xd6\x9b\x87}\x17s\x7fQ_\xac'
p1617
ssS'nltk_downloader'
p1618
(dp1619
g6
(dp1620
g8
I0
sg9
S'nltk_downloader.html'
p1621
sg11
S'nltk.downloader'
p1622
sg13
g14
(g15
g16
NtRp1623
(dp1624
g19
I1
sg20
I0
sg21
I1183
sg22
I0
sg23
I994
sg24
I0
sbssg25
S'\xbdzL\xe4\xb5\x91u\xe8\xb4-J\x07\x168\xd9\xc0'
p1625
sssS'version'
p1626
S'3.5.2'
p1627
sS'settings'
p1628
S'\xe2\x00u\xa0\x05\xd50\xf8,1j\xf9o\x8f\xb3+'
p1629
sS'format'
p1630
I1
s.